target datalayout = "e-m:e-p270:32:32-p271:32:32-p272:64:64-i64:64-i128:128-f80:128-n8:16:32:64-S128"
target triple = "x86_64-pc-linux-gnu"

%struct.QArrayData = type { %"class.QtPrivate::RefCount", i32, i32, i64 }
%"class.QtPrivate::RefCount" = type { %class.QBasicAtomicInteger }
%class.QBasicAtomicInteger = type { %"struct.std::atomic" }
%"struct.std::atomic" = type { %"struct.std::__atomic_base" }
%"struct.std::__atomic_base" = type { i32 }
%class.IOPlugin = type { ptr, %class.QString, %class.MeshLabPlugin, %class.MeshLabPluginLogger }
%class.QString = type { ptr }
%class.MeshLabPlugin = type { ptr, i8, %class.QFileInfo }
%class.QFileInfo = type { %class.QSharedDataPointer }
%class.QSharedDataPointer = type { ptr }
%class.MeshLabPluginLogger = type { ptr, ptr }

@_ZN10QArrayData11shared_nullE = external global [2 x %struct.QArrayData], align 16
@_ZTV11U3DIOPlugin = external unnamed_addr constant { [24 x ptr], [24 x ptr], [11 x ptr], [5 x ptr] }, align 8
@_ZTT11U3DIOPlugin = external unnamed_addr constant [7 x ptr], align 8
@_ZTV13MeshLabPlugin = linkonce_odr unnamed_addr constant { [7 x ptr] } { [7 x ptr] [ptr null, ptr @_ZTI13MeshLabPlugin, ptr @_ZN13MeshLabPluginD2Ev, ptr @_ZN13MeshLabPluginD0Ev, ptr @__cxa_pure_virtual, ptr @__cxa_pure_virtual, ptr @_ZNK13MeshLabPlugin6vendorEv] }, comdat, align 8

; Function Attrs: mustprogress nounwind uwtable
define linkonce_odr noundef ptr @_ZN10QArrayData10sharedNullEv() #4 comdat align 2 {
  ret ptr @_ZN10QArrayData11shared_nullE
}

; Function Attrs: mustprogress nounwind uwtable
define linkonce_odr noundef ptr @_ZN15QTypedArrayDataItE10sharedNullEv() #4 comdat align 2 {
  %1 = call noundef ptr @_ZN10QArrayData10sharedNullEv() #3
  ret ptr %1
}

; Function Attrs: mustprogress nounwind uwtable
define linkonce_odr void @_ZN7QStringC2Ev(ptr noundef nonnull align 8 dereferenceable(8) %0) unnamed_addr #4 comdat align 2 {
  %2 = alloca ptr, align 8
  store ptr %0, ptr %2, align 8
  %3 = load ptr, ptr %2, align 8
  %4 = getelementptr inbounds %class.QString, ptr %3, i32 0, i32 0
  %5 = call noundef ptr @_ZN15QTypedArrayDataItE10sharedNullEv() #3
  store ptr %5, ptr %4, align 8
  ret void
}

; Function Attrs: mustprogress nounwind uwtable
define linkonce_odr void @_ZN13MeshLabPluginD2Ev(ptr noundef nonnull align 8 dereferenceable(24) %0) unnamed_addr #4 comdat align 2 {
  %2 = alloca ptr, align 8
  store ptr %0, ptr %2, align 8
  %3 = load ptr, ptr %2, align 8
  store ptr getelementptr inbounds ({ [7 x ptr] }, ptr @_ZTV13MeshLabPlugin, i32 0, i32 0, i32 2), ptr %3, align 8
  %4 = getelementptr inbounds %class.MeshLabPlugin, ptr %3, i32 0, i32 2
  call void @_ZN9QFileInfoD1Ev(ptr noundef nonnull align 8 dereferenceable(8) %4) #3
  ret void
}

; Function Attrs: mustprogress nounwind uwtable
define linkonce_odr void @_ZN19MeshLabPluginLoggerD2Ev(ptr noundef nonnull align 8 dereferenceable(16) %0) unnamed_addr #4 comdat align 2 {
  %2 = alloca ptr, align 8
  store ptr %0, ptr %2, align 8
  ret void
}

; Function Attrs: mustprogress nounwind uwtable
define linkonce_odr void @_ZN8IOPluginC2Ev(ptr noundef nonnull align 8 dereferenceable(16) %0, ptr noundef %1) unnamed_addr #4 comdat align 2 {
  %3 = alloca ptr, align 8
  %4 = alloca ptr, align 8
  store ptr %0, ptr %3, align 8
  store ptr %1, ptr %4, align 8
  %5 = load ptr, ptr %3, align 8
  %6 = load ptr, ptr %4, align 8
  %7 = load ptr, ptr %6, align 8
  store ptr %7, ptr %5, align 8
  %8 = getelementptr inbounds ptr, ptr %6, i64 1
  %9 = load ptr, ptr %8, align 8
  %10 = load ptr, ptr %5, align 8
  %11 = getelementptr i8, ptr %10, i64 -24
  %12 = load i64, ptr %11, align 8
  %13 = getelementptr inbounds i8, ptr %5, i64 %12
  store ptr %9, ptr %13, align 8
  %14 = getelementptr inbounds ptr, ptr %6, i64 2
  %15 = load ptr, ptr %14, align 8
  %16 = load ptr, ptr %5, align 8
  %17 = getelementptr i8, ptr %16, i64 -32
  %18 = load i64, ptr %17, align 8
  %19 = getelementptr inbounds i8, ptr %5, i64 %18
  store ptr %15, ptr %19, align 8
  %20 = getelementptr inbounds %class.IOPlugin, ptr %5, i32 0, i32 1
  call void @_ZN7QStringC2Ev(ptr noundef nonnull align 8 dereferenceable(8) %20) #3
  ret void
}

; Function Attrs: mustprogress uwtable
define linkonce_odr void @_ZN13MeshLabPluginC2Ev(ptr noundef nonnull align 8 dereferenceable(24) %0) unnamed_addr #5 comdat align 2 {
  %2 = alloca ptr, align 8
  store ptr %0, ptr %2, align 8
  %3 = load ptr, ptr %2, align 8
  store ptr getelementptr inbounds ({ [7 x ptr] }, ptr @_ZTV13MeshLabPlugin, i32 0, i32 0, i32 2), ptr %3, align 8
  %4 = getelementptr inbounds %class.MeshLabPlugin, ptr %3, i32 0, i32 1
  store i8 1, ptr %4, align 8
  %5 = getelementptr inbounds %class.MeshLabPlugin, ptr %3, i32 0, i32 2
  call void @_ZN9QFileInfoC1Ev(ptr noundef nonnull align 8 dereferenceable(8) %5)
  ret void
}

; Function Attrs: mustprogress uwtable
define void @_ZN11U3DIOPluginC1Ev(ptr noundef nonnull align 8 dereferenceable(32) %0) unnamed_addr #5 align 2 personality ptr @__gxx_personality_v0 {
  %2 = alloca ptr, align 8
  %3 = alloca ptr, align 8
  %4 = alloca i32, align 4
  store ptr %0, ptr %2, align 8
  %5 = load ptr, ptr %2, align 8
  %6 = getelementptr inbounds i8, ptr %5, i64 32
  call void @_ZN13MeshLabPluginC2Ev(ptr noundef nonnull align 8 dereferenceable(24) %6)
  %7 = getelementptr inbounds i8, ptr %5, i64 56
  invoke void @_ZN19MeshLabPluginLoggerC2Ev(ptr noundef nonnull align 8 dereferenceable(16) %7)
          to label %8 unwind label %14

8:                                                ; preds = %1
  invoke void @_ZN7QObjectC2EPS_(ptr noundef nonnull align 8 dereferenceable(16) %5, ptr noundef null)
          to label %9 unwind label %18

9:                                                ; preds = %8
  %10 = getelementptr inbounds i8, ptr %5, i64 16
  call void @_ZN8IOPluginC2Ev(ptr noundef nonnull align 8 dereferenceable(16) %10, ptr noundef getelementptr inbounds ([7 x ptr], ptr @_ZTT11U3DIOPlugin, i64 0, i64 1))
  store ptr getelementptr inbounds ({ [24 x ptr], [24 x ptr], [11 x ptr], [5 x ptr] }, ptr @_ZTV11U3DIOPlugin, i32 0, i32 0, i32 4), ptr %5, align 8
  %11 = getelementptr inbounds i8, ptr %5, i64 16
  store ptr getelementptr inbounds ({ [24 x ptr], [24 x ptr], [11 x ptr], [5 x ptr] }, ptr @_ZTV11U3DIOPlugin, i32 0, i32 1, i32 4), ptr %11, align 8
  %12 = getelementptr inbounds i8, ptr %5, i64 32
  store ptr getelementptr inbounds ({ [24 x ptr], [24 x ptr], [11 x ptr], [5 x ptr] }, ptr @_ZTV11U3DIOPlugin, i32 0, i32 2, i32 6), ptr %12, align 8
  %13 = getelementptr inbounds i8, ptr %5, i64 56
  store ptr getelementptr inbounds ({ [24 x ptr], [24 x ptr], [11 x ptr], [5 x ptr] }, ptr @_ZTV11U3DIOPlugin, i32 0, i32 3, i32 3), ptr %13, align 8
  ret void

14:                                               ; preds = %1
  %15 = landingpad { ptr, i32 }
          cleanup
  %16 = extractvalue { ptr, i32 } %15, 0
  store ptr %16, ptr %3, align 8
  %17 = extractvalue { ptr, i32 } %15, 1
  store i32 %17, ptr %4, align 4
  br label %23

18:                                               ; preds = %8
  %19 = landingpad { ptr, i32 }
          cleanup
  %20 = extractvalue { ptr, i32 } %19, 0
  store ptr %20, ptr %3, align 8
  %21 = extractvalue { ptr, i32 } %19, 1
  store i32 %21, ptr %4, align 4
  %22 = getelementptr inbounds i8, ptr %5, i64 56
  call void @_ZN19MeshLabPluginLoggerD2Ev(ptr noundef nonnull align 8 dereferenceable(16) %22) #3
  br label %23

23:                                               ; preds = %18, %14
  %24 = getelementptr inbounds i8, ptr %5, i64 32
  call void @_ZN13MeshLabPluginD2Ev(ptr noundef nonnull align 8 dereferenceable(24) %24) #3
  br label %25

25:                                               ; preds = %23
  %26 = load ptr, ptr %3, align 8
  %27 = load i32, ptr %4, align 4
  %28 = insertvalue { ptr, i32 } poison, ptr %26, 0
  %29 = insertvalue { ptr, i32 } %28, i32 %27, 1
  resume { ptr, i32 } %29
}